; Function Attrs: mustprogress nounwind uwtable
define dso_local noundef zeroext i1 @_ZNK4llvm20AArch64LegalizerInfo23legalizeBitfieldExtractERNS_12MachineInstrERNS_19MachineRegisterInfoERNS_15LegalizerHelperE(ptr nocapture nonnull readnone align 8 %0, ptr nocapture noundef nonnull readonly align 8 dereferenceable(70) %1, ptr noundef nonnull align 8 dereferenceable(512) %2, ptr nocapture nonnull readnone align 8 %3) local_unnamed_addr #0 align 2 {
  %5 = alloca %"class.std::optional.350", align 8
  %6 = alloca %"class.std::optional.350", align 8
  %7 = getelementptr inbounds nuw i8, ptr %1, i64 32
  %8 = load ptr, ptr %7, align 8
  %9 = getelementptr inbounds i8, ptr %8, i64 68
  %10 = load i32, ptr %9, align 4
  call void @_ZN4llvm34getIConstantVRegValWithLookThroughENS_8RegisterERKNS_19MachineRegisterInfoEb(ptr dead_on_unwind nonnull writable sret(%"class.std::optional.350") align 8 %5, i32 %10, ptr noundef nonnull align 8 dereferenceable(512) %2, i1 noundef zeroext true) #20
  %11 = getelementptr inbounds nuw i8, ptr %5, i64 24
  %12 = load i8, ptr %11, align 8
  %13 = trunc i8 %12 to i1
  br i1 %13, label %14, label %_ZNSt8optionalIN4llvm12ValueAndVRegEED2Ev.exit

14:                                               ; preds = %4
  %15 = load ptr, ptr %7, align 8
  %16 = getelementptr inbounds i8, ptr %15, i64 100
  %17 = load i32, ptr %16, align 4
  call void @_ZN4llvm34getIConstantVRegValWithLookThroughENS_8RegisterERKNS_19MachineRegisterInfoEb(ptr dead_on_unwind nonnull writable sret(%"class.std::optional.350") align 8 %6, i32 %17, ptr noundef nonnull align 8 dereferenceable(512) %2, i1 noundef zeroext true) #20
  %18 = getelementptr inbounds nuw i8, ptr %6, i64 24
  %19 = load i8, ptr %18, align 8
  %20 = trunc i8 %19 to i1
  br i1 %20, label %21, label %_ZNSt8optionalIN4llvm12ValueAndVRegEED2Ev.exit

21:                                               ; preds = %14
  store i8 0, ptr %18, align 8
  %22 = getelementptr inbounds nuw i8, ptr %6, i64 8
  %23 = load i32, ptr %22, align 8
  %24 = icmp ugt i32 %23, 64
  br i1 %24, label %25, label %_ZNSt8optionalIN4llvm12ValueAndVRegEED2Ev.exit

25:                                               ; preds = %21
  %26 = load ptr, ptr %6, align 8
  %27 = icmp eq ptr %26, null
  br i1 %27, label %_ZNSt8optionalIN4llvm12ValueAndVRegEED2Ev.exit, label %28

28:                                               ; preds = %25
  call void @_ZdaPv(ptr noundef nonnull %26) #22
  br label %_ZNSt8optionalIN4llvm12ValueAndVRegEED2Ev.exit

_ZNSt8optionalIN4llvm12ValueAndVRegEED2Ev.exit:   ; preds = %28, %25, %21, %14, %4
  %29 = phi i1 [ false, %4 ], [ false, %14 ], [ true, %21 ], [ true, %25 ], [ true, %28 ]
  %30 = load i8, ptr %11, align 8
  %31 = trunc i8 %30 to i1
  br i1 %31, label %32, label %_ZNSt8optionalIN4llvm12ValueAndVRegEED2Ev.exit7

32:                                               ; preds = %_ZNSt8optionalIN4llvm12ValueAndVRegEED2Ev.exit
  store i8 0, ptr %11, align 8
  %33 = getelementptr inbounds nuw i8, ptr %5, i64 8
  %34 = load i32, ptr %33, align 8
  %35 = icmp ugt i32 %34, 64
  br i1 %35, label %36, label %_ZNSt8optionalIN4llvm12ValueAndVRegEED2Ev.exit7

36:                                               ; preds = %32
  %37 = load ptr, ptr %5, align 8
  %38 = icmp eq ptr %37, null
  br i1 %38, label %_ZNSt8optionalIN4llvm12ValueAndVRegEED2Ev.exit7, label %39

39:                                               ; preds = %36
  call void @_ZdaPv(ptr noundef nonnull %37) #22
  br label %_ZNSt8optionalIN4llvm12ValueAndVRegEED2Ev.exit7

_ZNSt8optionalIN4llvm12ValueAndVRegEED2Ev.exit7:  ; preds = %_ZNSt8optionalIN4llvm12ValueAndVRegEED2Ev.exit, %32, %36, %39
  ret i1 %29
}